; Function Attrs: mustprogress uwtable
define hidden range(i32 0, 2) i32 @hb_ot_var_has_data(ptr noundef %0) local_unnamed_addr #0 {
  %2 = getelementptr inbounds i8, ptr %0, i64 224
  %3 = tail call noundef ptr @_ZNK16hb_lazy_loader_tIN2OT4fvarE22hb_table_lazy_loader_tIS1_Lj18ELb1EE9hb_face_tLj18E9hb_blob_tE10get_storedEv(ptr noundef nonnull align 8 dereferenceable(8) %2)
  %4 = getelementptr inbounds i8, ptr %3, i64 16
  %5 = load ptr, ptr %4, align 8
  %6 = getelementptr inbounds i8, ptr %3, i64 24
  %7 = load i32, ptr %6, align 8
  %8 = icmp ult i32 %7, 16
  %spec.select.i.i.i.i.i = select i1 %8, ptr @_hb_NullPool, ptr %5
  %9 = load i8, ptr %spec.select.i.i.i.i.i, align 1
  %10 = zext i8 %9 to i32
  %11 = getelementptr inbounds i8, ptr %spec.select.i.i.i.i.i, i64 1
  %12 = load i8, ptr %11, align 1
  %13 = zext i8 %12 to i32
  %14 = shl nuw i32 %10, 24
  %15 = shl nuw nsw i32 %13, 16
  %16 = getelementptr inbounds i8, ptr %spec.select.i.i.i.i.i, i64 2
  %17 = load i8, ptr %16, align 1
  %18 = zext i8 %17 to i32
  %19 = shl nuw nsw i32 %18, 8
  %20 = getelementptr inbounds i8, ptr %spec.select.i.i.i.i.i, i64 3
  %21 = load i8, ptr %20, align 1
  %22 = zext i8 %21 to i32
  %23 = or disjoint i32 %15, %14
  %24 = or disjoint i32 %23, %22
  %25 = or disjoint i32 %24, %19
  %26 = icmp ne i32 %25, 0
  %27 = zext i1 %26 to i32
  ret i32 %27
}